; Function Attrs: mustprogress uwtable
define hidden void @_ZN4cvc58internal6theory6Theory16notifyInConflictEv(ptr nocapture noundef nonnull readonly align 8 dereferenceable(408) %this) unnamed_addr #3 align 2 {
entry:
  %d_inferManager = getelementptr inbounds i8, ptr %this, i64 184
  %0 = load ptr, ptr %d_inferManager, align 8
  %cmp.not = icmp eq ptr %0, null
  br i1 %cmp.not, label %if.end, label %if.then

if.then:                                          ; preds = %entry
  %vtable = load ptr, ptr %0, align 8
  %vfn = getelementptr inbounds i8, ptr %vtable, i64 40
  %1 = load ptr, ptr %vfn, align 8
  tail call void %1(ptr noundef nonnull align 8 dereferenceable(256) %0)
  br label %if.end

if.end:                                           ; preds = %if.then, %entry
  ret void
}